SF:/Users/samuel.picek/soxes/rpcnet/src/lib.rs
FN:1017,_RINvMs0_Cs5YMSNPn7q8X_6rpcnetNtB6_9RpcConfig13with_key_pathReECs7wZUB9RO2iF_25exact_coverage_lines_test
FN:1039,_RINvMs0_Cs5YMSNPn7q8X_6rpcnetNtB6_9RpcConfig16with_server_nameReECs7wZUB9RO2iF_25exact_coverage_lines_test
FN:990,_RINvMs0_Cs5YMSNPn7q8X_6rpcnetNtB6_9RpcConfig3newReBK_ECs7wZUB9RO2iF_25exact_coverage_lines_test
FN:1268,_RINvMs1_Cs5YMSNPn7q8X_6rpcnetNtB6_9RpcServer8registerNCNCNvCs7wZUB9RO2iF_25exact_coverage_lines_tests_27test_force_both_exact_lines00NCNCBR_00EBV_
FN:1268,_RINvMs1_Cs5YMSNPn7q8X_6rpcnetNtB6_9RpcServer8registerNCNCNvCs7wZUB9RO2iF_25exact_coverage_lines_tests_32test_exact_line_1426_stream_send00NCNCBR_00EBV_
FN:1268,_RINvMs1_Cs5YMSNPn7q8X_6rpcnetNtB6_9RpcServer8registerNCNCNvCs7wZUB9RO2iF_25exact_coverage_lines_tests_38test_exact_line_1467_natural_ok_return00NCNCBR_00EBV_
FN:1268,_RINvMs1_Cs5YMSNPn7q8X_6rpcnetNtB6_9RpcServer8registerNCNCNvCs7wZUB9RO2iF_25exact_coverage_lines_tests_39test_alternative_approach_for_line_146700NCNCBR_00EBV_
FN:1272,_RNCINvMs1_Cs5YMSNPn7q8X_6rpcnetNtB8_9RpcServer8registerNCNCNvCs7wZUB9RO2iF_25exact_coverage_lines_tests_27test_force_both_exact_lines00NCNCBT_00E0BX_
FN:1272,_RNCINvMs1_Cs5YMSNPn7q8X_6rpcnetNtB8_9RpcServer8registerNCNCNvCs7wZUB9RO2iF_25exact_coverage_lines_tests_32test_exact_line_1426_stream_send00NCNCBT_00E0BX_
FN:1272,_RNCINvMs1_Cs5YMSNPn7q8X_6rpcnetNtB8_9RpcServer8registerNCNCNvCs7wZUB9RO2iF_25exact_coverage_lines_tests_38test_exact_line_1467_natural_ok_return00NCNCBT_00E0BX_
FN:1272,_RNCINvMs1_Cs5YMSNPn7q8X_6rpcnetNtB8_9RpcServer8registerNCNCNvCs7wZUB9RO2iF_25exact_coverage_lines_tests_39test_alternative_approach_for_line_146700NCNCBT_00E0BX_
FN:1276,_RNCNCINvMs1_Cs5YMSNPn7q8X_6rpcnetNtBa_9RpcServer8registerNCNCNvCs7wZUB9RO2iF_25exact_coverage_lines_tests_27test_force_both_exact_lines00NCNCBV_00E00BZ_
FN:1276,_RNCNCINvMs1_Cs5YMSNPn7q8X_6rpcnetNtBa_9RpcServer8registerNCNCNvCs7wZUB9RO2iF_25exact_coverage_lines_tests_32test_exact_line_1426_stream_send00NCNCBV_00E00BZ_
FN:1276,_RNCNCINvMs1_Cs5YMSNPn7q8X_6rpcnetNtBa_9RpcServer8registerNCNCNvCs7wZUB9RO2iF_25exact_coverage_lines_tests_38test_exact_line_1467_natural_ok_return00NCNCBV_00E00BZ_
FN:1276,_RNCNCINvMs1_Cs5YMSNPn7q8X_6rpcnetNtBa_9RpcServer8registerNCNCNvCs7wZUB9RO2iF_25exact_coverage_lines_tests_39test_alternative_approach_for_line_146700NCNCBV_00E00BZ_
FN:1405,_RNCNCNCNvMs1_Cs5YMSNPn7q8X_6rpcnetNtBb_9RpcServer5start000Cs7wZUB9RO2iF_25exact_coverage_lines_test
FN:1399,_RNCNCNvMs1_Cs5YMSNPn7q8X_6rpcnetNtB9_9RpcServer5start00Cs7wZUB9RO2iF_25exact_coverage_lines_test
FN:1991,_RNCNCNvMs2_Cs5YMSNPn7q8X_6rpcnetNtB9_9RpcClient4call00Cs7wZUB9RO2iF_25exact_coverage_lines_test
FN:2001,_RNCNCNvMs2_Cs5YMSNPn7q8X_6rpcnetNtB9_9RpcClient4call0s0_0Cs7wZUB9RO2iF_25exact_coverage_lines_test
FN:1998,_RNCNCNvMs2_Cs5YMSNPn7q8X_6rpcnetNtB9_9RpcClient4call0s_0Cs7wZUB9RO2iF_25exact_coverage_lines_test
FN:1826,_RNCNCNvMs2_Cs5YMSNPn7q8X_6rpcnetNtB9_9RpcClient7connect00Cs7wZUB9RO2iF_25exact_coverage_lines_test
FN:1830,_RNCNCNvMs2_Cs5YMSNPn7q8X_6rpcnetNtB9_9RpcClient7connect0s0_0Cs7wZUB9RO2iF_25exact_coverage_lines_test
FN:1832,_RNCNCNvMs2_Cs5YMSNPn7q8X_6rpcnetNtB9_9RpcClient7connect0s1_0Cs7wZUB9RO2iF_25exact_coverage_lines_test
FN:1834,_RNCNCNvMs2_Cs5YMSNPn7q8X_6rpcnetNtB9_9RpcClient7connect0s2_0Cs7wZUB9RO2iF_25exact_coverage_lines_test
FN:1836,_RNCNCNvMs2_Cs5YMSNPn7q8X_6rpcnetNtB9_9RpcClient7connect0s3_0Cs7wZUB9RO2iF_25exact_coverage_lines_test
FN:1838,_RNCNCNvMs2_Cs5YMSNPn7q8X_6rpcnetNtB9_9RpcClient7connect0s4_0Cs7wZUB9RO2iF_25exact_coverage_lines_test
FN:1842,_RNCNCNvMs2_Cs5YMSNPn7q8X_6rpcnetNtB9_9RpcClient7connect0s5_0Cs7wZUB9RO2iF_25exact_coverage_lines_test
FN:1844,_RNCNCNvMs2_Cs5YMSNPn7q8X_6rpcnetNtB9_9RpcClient7connect0s6_0Cs7wZUB9RO2iF_25exact_coverage_lines_test
FN:1846,_RNCNCNvMs2_Cs5YMSNPn7q8X_6rpcnetNtB9_9RpcClient7connect0s7_0Cs7wZUB9RO2iF_25exact_coverage_lines_test
FN:1848,_RNCNCNvMs2_Cs5YMSNPn7q8X_6rpcnetNtB9_9RpcClient7connect0s8_0Cs7wZUB9RO2iF_25exact_coverage_lines_test
FN:1854,_RNCNCNvMs2_Cs5YMSNPn7q8X_6rpcnetNtB9_9RpcClient7connect0s9_0Cs7wZUB9RO2iF_25exact_coverage_lines_test
FN:1828,_RNCNCNvMs2_Cs5YMSNPn7q8X_6rpcnetNtB9_9RpcClient7connect0s_0Cs7wZUB9RO2iF_25exact_coverage_lines_test
FN:1859,_RNCNCNvMs2_Cs5YMSNPn7q8X_6rpcnetNtB9_9RpcClient7connect0sa_0Cs7wZUB9RO2iF_25exact_coverage_lines_test
FN:1564,_RNCNvMs1_Cs5YMSNPn7q8X_6rpcnetNtB7_9RpcServer20send_response_stream0Cs7wZUB9RO2iF_25exact_coverage_lines_test
FN:1393,_RNCNvMs1_Cs5YMSNPn7q8X_6rpcnetNtB7_9RpcServer5start0Cs7wZUB9RO2iF_25exact_coverage_lines_test
FN:1979,_RNCNvMs2_Cs5YMSNPn7q8X_6rpcnetNtB7_9RpcClient4call0Cs7wZUB9RO2iF_25exact_coverage_lines_test
FN:1822,_RNCNvMs2_Cs5YMSNPn7q8X_6rpcnetNtB7_9RpcClient7connect0Cs7wZUB9RO2iF_25exact_coverage_lines_test
FN:1017,_RINvMs0_Cs5YMSNPn7q8X_6rpcnetNtB6_9RpcConfig13with_key_pathpEB6_
FN:1039,_RINvMs0_Cs5YMSNPn7q8X_6rpcnetNtB6_9RpcConfig16with_server_namepEB6_
FN:990,_RINvMs0_Cs5YMSNPn7q8X_6rpcnetNtB6_9RpcConfig3newppEB6_
FN:1331,_RINvMs1_Cs5YMSNPn7q8X_6rpcnetNtB6_9RpcServer18register_streamingpppEB6_
FN:1268,_RINvMs1_Cs5YMSNPn7q8X_6rpcnetNtB6_9RpcServer8registerppEB6_
FN:2094,_RINvMs2_Cs5YMSNPn7q8X_6rpcnetNtB6_9RpcClient14call_streamingpEB6_
FN:2278,_RINvMs2_Cs5YMSNPn7q8X_6rpcnetNtB6_9RpcClient21call_client_streamingpEB6_
FN:1336,_RNCINvMs1_Cs5YMSNPn7q8X_6rpcnetNtB8_9RpcServer18register_streamingpppE0B8_
FN:1272,_RNCINvMs1_Cs5YMSNPn7q8X_6rpcnetNtB8_9RpcServer8registerppE0B8_
FN:2101,_RNCINvMs2_Cs5YMSNPn7q8X_6rpcnetNtB8_9RpcClient14call_streamingpE0B8_
FN:2285,_RNCINvMs2_Cs5YMSNPn7q8X_6rpcnetNtB8_9RpcClient21call_client_streamingpE0B8_
FN:1340,_RNCNCINvMs1_Cs5YMSNPn7q8X_6rpcnetNtBa_9RpcServer18register_streamingpppE00Ba_
FN:1276,_RNCNCINvMs1_Cs5YMSNPn7q8X_6rpcnetNtBa_9RpcServer8registerppE00Ba_
FN:2107,_RNCNCINvMs2_Cs5YMSNPn7q8X_6rpcnetNtBa_9RpcClient14call_streamingpE00Ba_
FN:2126,_RNCNCINvMs2_Cs5YMSNPn7q8X_6rpcnetNtBa_9RpcClient14call_streamingpE0s0_0Ba_
FN:2116,_RNCNCINvMs2_Cs5YMSNPn7q8X_6rpcnetNtBa_9RpcClient14call_streamingpE0s_0Ba_
FN:1342,_RNCNCNCINvMs1_Cs5YMSNPn7q8X_6rpcnetNtBc_9RpcServer18register_streamingpppE000Bc_
FN:1405,_RNCNCNCNvMs1_Cs5YMSNPn7q8X_6rpcnetNtBb_9RpcServer5start000Bb_
FN:1399,_RNCNCNvMs1_Cs5YMSNPn7q8X_6rpcnetNtB9_9RpcServer5start00B9_
FN:1991,_RNCNCNvMs2_Cs5YMSNPn7q8X_6rpcnetNtB9_9RpcClient4call00B9_
FN:2001,_RNCNCNvMs2_Cs5YMSNPn7q8X_6rpcnetNtB9_9RpcClient4call0s0_0B9_
FN:1998,_RNCNCNvMs2_Cs5YMSNPn7q8X_6rpcnetNtB9_9RpcClient4call0s_0B9_
FN:1826,_RNCNCNvMs2_Cs5YMSNPn7q8X_6rpcnetNtB9_9RpcClient7connect00B9_
FN:1830,_RNCNCNvMs2_Cs5YMSNPn7q8X_6rpcnetNtB9_9RpcClient7connect0s0_0B9_
FN:1832,_RNCNCNvMs2_Cs5YMSNPn7q8X_6rpcnetNtB9_9RpcClient7connect0s1_0B9_
FN:1834,_RNCNCNvMs2_Cs5YMSNPn7q8X_6rpcnetNtB9_9RpcClient7connect0s2_0B9_
FN:1836,_RNCNCNvMs2_Cs5YMSNPn7q8X_6rpcnetNtB9_9RpcClient7connect0s3_0B9_
FN:1838,_RNCNCNvMs2_Cs5YMSNPn7q8X_6rpcnetNtB9_9RpcClient7connect0s4_0B9_
FN:1842,_RNCNCNvMs2_Cs5YMSNPn7q8X_6rpcnetNtB9_9RpcClient7connect0s5_0B9_
FN:1844,_RNCNCNvMs2_Cs5YMSNPn7q8X_6rpcnetNtB9_9RpcClient7connect0s6_0B9_
FN:1846,_RNCNCNvMs2_Cs5YMSNPn7q8X_6rpcnetNtB9_9RpcClient7connect0s7_0B9_
FN:1848,_RNCNCNvMs2_Cs5YMSNPn7q8X_6rpcnetNtB9_9RpcClient7connect0s8_0B9_
FN:1854,_RNCNCNvMs2_Cs5YMSNPn7q8X_6rpcnetNtB9_9RpcClient7connect0s9_0B9_
FN:1828,_RNCNCNvMs2_Cs5YMSNPn7q8X_6rpcnetNtB9_9RpcClient7connect0s_0B9_
FN:1859,_RNCNCNvMs2_Cs5YMSNPn7q8X_6rpcnetNtB9_9RpcClient7connect0sa_0B9_
FN:1564,_RNCNvMs1_Cs5YMSNPn7q8X_6rpcnetNtB7_9RpcServer20send_response_stream0B7_
FN:1393,_RNCNvMs1_Cs5YMSNPn7q8X_6rpcnetNtB7_9RpcServer5start0B7_
FN:2227,_RNCNvMs2_Cs5YMSNPn7q8X_6rpcnetNtB7_9RpcClient21call_server_streaming0B7_
FN:1979,_RNCNvMs2_Cs5YMSNPn7q8X_6rpcnetNtB7_9RpcClient4call0B7_
FN:1822,_RNCNvMs2_Cs5YMSNPn7q8X_6rpcnetNtB7_9RpcClient7connect0B7_
FN:1519,_RNvMs1_Cs5YMSNPn7q8X_6rpcnetNtB5_9RpcServer21create_request_stream
FN:1642,_RNCNvMs1_Cs5YMSNPn7q8X_6rpcnetNtB7_9RpcServer4bind0B7_
FN:1652,_RNCNvMs1_Cs5YMSNPn7q8X_6rpcnetNtB7_9RpcServer4binds0_0B7_
FN:1655,_RNCNvMs1_Cs5YMSNPn7q8X_6rpcnetNtB7_9RpcServer4binds1_0B7_
FN:1657,_RNCNvMs1_Cs5YMSNPn7q8X_6rpcnetNtB7_9RpcServer4binds2_0B7_
FN:1660,_RNCNvMs1_Cs5YMSNPn7q8X_6rpcnetNtB7_9RpcServer4binds3_0B7_
FN:1662,_RNCNvMs1_Cs5YMSNPn7q8X_6rpcnetNtB7_9RpcServer4binds4_0B7_
FN:1665,_RNCNvMs1_Cs5YMSNPn7q8X_6rpcnetNtB7_9RpcServer4binds5_0B7_
FN:1669,_RNCNvMs1_Cs5YMSNPn7q8X_6rpcnetNtB7_9RpcServer4binds6_0B7_
FN:1671,_RNCNvMs1_Cs5YMSNPn7q8X_6rpcnetNtB7_9RpcServer4binds7_0B7_
FN:1673,_RNCNvMs1_Cs5YMSNPn7q8X_6rpcnetNtB7_9RpcServer4binds8_0B7_
FN:1675,_RNCNvMs1_Cs5YMSNPn7q8X_6rpcnetNtB7_9RpcServer4binds9_0B7_
FN:1650,_RNCNvMs1_Cs5YMSNPn7q8X_6rpcnetNtB7_9RpcServer4binds_0B7_
FN:1677,_RNCNvMs1_Cs5YMSNPn7q8X_6rpcnetNtB7_9RpcServer4bindsa_0B7_
FN:815,_RNvMCs5YMSNPn7q8X_6rpcnetNtB2_10RpcRequest2id
FN:808,_RNvMCs5YMSNPn7q8X_6rpcnetNtB2_10RpcRequest3new
FN:822,_RNvMCs5YMSNPn7q8X_6rpcnetNtB2_10RpcRequest6method
FN:830,_RNvMCs5YMSNPn7q8X_6rpcnetNtB2_10RpcRequest6params
FN:1068,_RNvMs0_Cs5YMSNPn7q8X_6rpcnetNtB5_9RpcConfig24with_keep_alive_interval
FN:1561,_RNvMs1_Cs5YMSNPn7q8X_6rpcnetNtB5_9RpcServer20send_response_stream
FN:1471,_RNvMs1_Cs5YMSNPn7q8X_6rpcnetNtB5_9RpcServer39create_request_stream_with_initial_data
FN:1203,_RNvMs1_Cs5YMSNPn7q8X_6rpcnetNtB5_9RpcServer3new
FN:1640,_RNvMs1_Cs5YMSNPn7q8X_6rpcnetNtB5_9RpcServer4bind
FN:1393,_RNvMs1_Cs5YMSNPn7q8X_6rpcnetNtB5_9RpcServer5start
FN:2223,_RNvMs2_Cs5YMSNPn7q8X_6rpcnetNtB5_9RpcClient21call_server_streaming
FN:1979,_RNvMs2_Cs5YMSNPn7q8X_6rpcnetNtB5_9RpcClient4call
FN:1822,_RNvMs2_Cs5YMSNPn7q8X_6rpcnetNtB5_9RpcClient7connect
FN:881,_RNvMs_Cs5YMSNPn7q8X_6rpcnetNtB4_11RpcResponse11from_result
FN:889,_RNvMs_Cs5YMSNPn7q8X_6rpcnetNtB4_11RpcResponse2id
FN:868,_RNvMs_Cs5YMSNPn7q8X_6rpcnetNtB4_11RpcResponse3new
FN:903,_RNvMs_Cs5YMSNPn7q8X_6rpcnetNtB4_11RpcResponse5error
FN:896,_RNvMs_Cs5YMSNPn7q8X_6rpcnetNtB4_11RpcResponse6result
FN:1017,_RINvMs0_Cs5YMSNPn7q8X_6rpcnetNtB6_9RpcConfig13with_key_pathReECs3L44XCKFR2I_23surgical_line_1426_test
FN:1039,_RINvMs0_Cs5YMSNPn7q8X_6rpcnetNtB6_9RpcConfig16with_server_nameReECs3L44XCKFR2I_23surgical_line_1426_test
FN:990,_RINvMs0_Cs5YMSNPn7q8X_6rpcnetNtB6_9RpcConfig3newReBK_ECs3L44XCKFR2I_23surgical_line_1426_test
FN:1268,_RINvMs1_Cs5YMSNPn7q8X_6rpcnetNtB6_9RpcServer8registerNCNCNvCs3L44XCKFR2I_23surgical_line_1426_tests_34test_line_1426_with_unknown_method00NCNCBR_00EBV_
FN:1268,_RINvMs1_Cs5YMSNPn7q8X_6rpcnetNtB6_9RpcServer8registerNCNCNvCs3L44XCKFR2I_23surgical_line_1426_tests_36test_surgical_line_1426_bincode_path00NCNCBR_00EBV_
FN:1268,_RINvMs1_Cs5YMSNPn7q8X_6rpcnetNtB6_9RpcServer8registerNCNCNvCs3L44XCKFR2I_23surgical_line_1426_tests_39test_concurrent_calls_hitting_line_142600NCNCBR_00EBV_
FN:1268,_RINvMs1_Cs5YMSNPn7q8X_6rpcnetNtB6_9RpcServer8registerNCNCNvCs3L44XCKFR2I_23surgical_line_1426_tests_42test_line_1426_with_various_response_sizes00NCNCBR_00EBV_
FN:1272,_RNCINvMs1_Cs5YMSNPn7q8X_6rpcnetNtB8_9RpcServer8registerNCNCNvCs3L44XCKFR2I_23surgical_line_1426_tests_34test_line_1426_with_unknown_method00NCNCBT_00E0BX_
FN:1272,_RNCINvMs1_Cs5YMSNPn7q8X_6rpcnetNtB8_9RpcServer8registerNCNCNvCs3L44XCKFR2I_23surgical_line_1426_tests_36test_surgical_line_1426_bincode_path00NCNCBT_00E0BX_
FN:1272,_RNCINvMs1_Cs5YMSNPn7q8X_6rpcnetNtB8_9RpcServer8registerNCNCNvCs3L44XCKFR2I_23surgical_line_1426_tests_39test_concurrent_calls_hitting_line_142600NCNCBT_00E0BX_
FN:1272,_RNCINvMs1_Cs5YMSNPn7q8X_6rpcnetNtB8_9RpcServer8registerNCNCNvCs3L44XCKFR2I_23surgical_line_1426_tests_42test_line_1426_with_various_response_sizes00NCNCBT_00E0BX_
FN:1276,_RNCNCINvMs1_Cs5YMSNPn7q8X_6rpcnetNtBa_9RpcServer8registerNCNCNvCs3L44XCKFR2I_23surgical_line_1426_tests_34test_line_1426_with_unknown_method00NCNCBV_00E00BZ_
FN:1276,_RNCNCINvMs1_Cs5YMSNPn7q8X_6rpcnetNtBa_9RpcServer8registerNCNCNvCs3L44XCKFR2I_23surgical_line_1426_tests_36test_surgical_line_1426_bincode_path00NCNCBV_00E00BZ_
FN:1276,_RNCNCINvMs1_Cs5YMSNPn7q8X_6rpcnetNtBa_9RpcServer8registerNCNCNvCs3L44XCKFR2I_23surgical_line_1426_tests_39test_concurrent_calls_hitting_line_142600NCNCBV_00E00BZ_
FN:1276,_RNCNCINvMs1_Cs5YMSNPn7q8X_6rpcnetNtBa_9RpcServer8registerNCNCNvCs3L44XCKFR2I_23surgical_line_1426_tests_42test_line_1426_with_various_response_sizes00NCNCBV_00E00BZ_
FN:1405,_RNCNCNCNvMs1_Cs5YMSNPn7q8X_6rpcnetNtBb_9RpcServer5start000Cs3L44XCKFR2I_23surgical_line_1426_test
FN:1399,_RNCNCNvMs1_Cs5YMSNPn7q8X_6rpcnetNtB9_9RpcServer5start00Cs3L44XCKFR2I_23surgical_line_1426_test
FN:1991,_RNCNCNvMs2_Cs5YMSNPn7q8X_6rpcnetNtB9_9RpcClient4call00Cs3L44XCKFR2I_23surgical_line_1426_test
FN:2001,_RNCNCNvMs2_Cs5YMSNPn7q8X_6rpcnetNtB9_9RpcClient4call0s0_0Cs3L44XCKFR2I_23surgical_line_1426_test
FN:1998,_RNCNCNvMs2_Cs5YMSNPn7q8X_6rpcnetNtB9_9RpcClient4call0s_0Cs3L44XCKFR2I_23surgical_line_1426_test
FN:1826,_RNCNCNvMs2_Cs5YMSNPn7q8X_6rpcnetNtB9_9RpcClient7connect00Cs3L44XCKFR2I_23surgical_line_1426_test
FN:1830,_RNCNCNvMs2_Cs5YMSNPn7q8X_6rpcnetNtB9_9RpcClient7connect0s0_0Cs3L44XCKFR2I_23surgical_line_1426_test
FN:1832,_RNCNCNvMs2_Cs5YMSNPn7q8X_6rpcnetNtB9_9RpcClient7connect0s1_0Cs3L44XCKFR2I_23surgical_line_1426_test
FN:1834,_RNCNCNvMs2_Cs5YMSNPn7q8X_6rpcnetNtB9_9RpcClient7connect0s2_0Cs3L44XCKFR2I_23surgical_line_1426_test
FN:1836,_RNCNCNvMs2_Cs5YMSNPn7q8X_6rpcnetNtB9_9RpcClient7connect0s3_0Cs3L44XCKFR2I_23surgical_line_1426_test
FN:1838,_RNCNCNvMs2_Cs5YMSNPn7q8X_6rpcnetNtB9_9RpcClient7connect0s4_0Cs3L44XCKFR2I_23surgical_line_1426_test
FN:1842,_RNCNCNvMs2_Cs5YMSNPn7q8X_6rpcnetNtB9_9RpcClient7connect0s5_0Cs3L44XCKFR2I_23surgical_line_1426_test
FN:1844,_RNCNCNvMs2_Cs5YMSNPn7q8X_6rpcnetNtB9_9RpcClient7connect0s6_0Cs3L44XCKFR2I_23surgical_line_1426_test
FN:1846,_RNCNCNvMs2_Cs5YMSNPn7q8X_6rpcnetNtB9_9RpcClient7connect0s7_0Cs3L44XCKFR2I_23surgical_line_1426_test
FN:1848,_RNCNCNvMs2_Cs5YMSNPn7q8X_6rpcnetNtB9_9RpcClient7connect0s8_0Cs3L44XCKFR2I_23surgical_line_1426_test
FN:1854,_RNCNCNvMs2_Cs5YMSNPn7q8X_6rpcnetNtB9_9RpcClient7connect0s9_0Cs3L44XCKFR2I_23surgical_line_1426_test
FN:1828,_RNCNCNvMs2_Cs5YMSNPn7q8X_6rpcnetNtB9_9RpcClient7connect0s_0Cs3L44XCKFR2I_23surgical_line_1426_test
FN:1859,_RNCNCNvMs2_Cs5YMSNPn7q8X_6rpcnetNtB9_9RpcClient7connect0sa_0Cs3L44XCKFR2I_23surgical_line_1426_test
FN:1564,_RNCNvMs1_Cs5YMSNPn7q8X_6rpcnetNtB7_9RpcServer20send_response_stream0Cs3L44XCKFR2I_23surgical_line_1426_test
FN:1393,_RNCNvMs1_Cs5YMSNPn7q8X_6rpcnetNtB7_9RpcServer5start0Cs3L44XCKFR2I_23surgical_line_1426_test
FN:1979,_RNCNvMs2_Cs5YMSNPn7q8X_6rpcnetNtB7_9RpcClient4call0Cs3L44XCKFR2I_23surgical_line_1426_test
FN:1822,_RNCNvMs2_Cs5YMSNPn7q8X_6rpcnetNtB7_9RpcClient7connect0Cs3L44XCKFR2I_23surgical_line_1426_test
FNDA:8,_RINvMs0_Cs5YMSNPn7q8X_6rpcnetNtB6_9RpcConfig13with_key_pathReECs7wZUB9RO2iF_25exact_coverage_lines_test
FNDA:8,_RINvMs0_Cs5YMSNPn7q8X_6rpcnetNtB6_9RpcConfig16with_server_nameReECs7wZUB9RO2iF_25exact_coverage_lines_test
FNDA:8,_RINvMs0_Cs5YMSNPn7q8X_6rpcnetNtB6_9RpcConfig3newReBK_ECs7wZUB9RO2iF_25exact_coverage_lines_test
FNDA:1,_RINvMs1_Cs5YMSNPn7q8X_6rpcnetNtB6_9RpcServer8registerNCNCNvCs7wZUB9RO2iF_25exact_coverage_lines_tests_27test_force_both_exact_lines00NCNCBR_00EBV_
FNDA:1,_RINvMs1_Cs5YMSNPn7q8X_6rpcnetNtB6_9RpcServer8registerNCNCNvCs7wZUB9RO2iF_25exact_coverage_lines_tests_32test_exact_line_1426_stream_send00NCNCBR_00EBV_
FNDA:1,_RINvMs1_Cs5YMSNPn7q8X_6rpcnetNtB6_9RpcServer8registerNCNCNvCs7wZUB9RO2iF_25exact_coverage_lines_tests_38test_exact_line_1467_natural_ok_return00NCNCBR_00EBV_
FNDA:1,_RINvMs1_Cs5YMSNPn7q8X_6rpcnetNtB6_9RpcServer8registerNCNCNvCs7wZUB9RO2iF_25exact_coverage_lines_tests_39test_alternative_approach_for_line_146700NCNCBR_00EBV_
FNDA:1,_RNCINvMs1_Cs5YMSNPn7q8X_6rpcnetNtB8_9RpcServer8registerNCNCNvCs7wZUB9RO2iF_25exact_coverage_lines_tests_27test_force_both_exact_lines00NCNCBT_00E0BX_
FNDA:1,_RNCINvMs1_Cs5YMSNPn7q8X_6rpcnetNtB8_9RpcServer8registerNCNCNvCs7wZUB9RO2iF_25exact_coverage_lines_tests_32test_exact_line_1426_stream_send00NCNCBT_00E0BX_
FNDA:1,_RNCINvMs1_Cs5YMSNPn7q8X_6rpcnetNtB8_9RpcServer8registerNCNCNvCs7wZUB9RO2iF_25exact_coverage_lines_tests_38test_exact_line_1467_natural_ok_return00NCNCBT_00E0BX_
FNDA:1,_RNCINvMs1_Cs5YMSNPn7q8X_6rpcnetNtB8_9RpcServer8registerNCNCNvCs7wZUB9RO2iF_25exact_coverage_lines_tests_39test_alternative_approach_for_line_146700NCNCBT_00E0BX_
FNDA:3,_RNCNCINvMs1_Cs5YMSNPn7q8X_6rpcnetNtBa_9RpcServer8registerNCNCNvCs7wZUB9RO2iF_25exact_coverage_lines_tests_27test_force_both_exact_lines00NCNCBV_00E00BZ_
FNDA:5,_RNCNCINvMs1_Cs5YMSNPn7q8X_6rpcnetNtBa_9RpcServer8registerNCNCNvCs7wZUB9RO2iF_25exact_coverage_lines_tests_32test_exact_line_1426_stream_send00NCNCBV_00E00BZ_
FNDA:1,_RNCNCINvMs1_Cs5YMSNPn7q8X_6rpcnetNtBa_9RpcServer8registerNCNCNvCs7wZUB9RO2iF_25exact_coverage_lines_tests_38test_exact_line_1467_natural_ok_return00NCNCBV_00E00BZ_
FNDA:1,_RNCNCINvMs1_Cs5YMSNPn7q8X_6rpcnetNtBa_9RpcServer8registerNCNCNvCs7wZUB9RO2iF_25exact_coverage_lines_tests_39test_alternative_approach_for_line_146700NCNCBV_00E00BZ_
FNDA:10,_RNCNCNCNvMs1_Cs5YMSNPn7q8X_6rpcnetNtBb_9RpcServer5start000Cs7wZUB9RO2iF_25exact_coverage_lines_test
FNDA:4,_RNCNCNvMs1_Cs5YMSNPn7q8X_6rpcnetNtB9_9RpcServer5start00Cs7wZUB9RO2iF_25exact_coverage_lines_test
FNDA:0,_RNCNCNvMs2_Cs5YMSNPn7q8X_6rpcnetNtB9_9RpcClient4call00Cs7wZUB9RO2iF_25exact_coverage_lines_test
FNDA:10,_RNCNCNvMs2_Cs5YMSNPn7q8X_6rpcnetNtB9_9RpcClient4call0s0_0Cs7wZUB9RO2iF_25exact_coverage_lines_test
FNDA:0,_RNCNCNvMs2_Cs5YMSNPn7q8X_6rpcnetNtB9_9RpcClient4call0s_0Cs7wZUB9RO2iF_25exact_coverage_lines_test
FNDA:0,_RNCNCNvMs2_Cs5YMSNPn7q8X_6rpcnetNtB9_9RpcClient7connect00Cs7wZUB9RO2iF_25exact_coverage_lines_test
FNDA:0,_RNCNCNvMs2_Cs5YMSNPn7q8X_6rpcnetNtB9_9RpcClient7connect0s0_0Cs7wZUB9RO2iF_25exact_coverage_lines_test
FNDA:0,_RNCNCNvMs2_Cs5YMSNPn7q8X_6rpcnetNtB9_9RpcClient7connect0s1_0Cs7wZUB9RO2iF_25exact_coverage_lines_test
FNDA:0,_RNCNCNvMs2_Cs5YMSNPn7q8X_6rpcnetNtB9_9RpcClient7connect0s2_0Cs7wZUB9RO2iF_25exact_coverage_lines_test
FNDA:0,_RNCNCNvMs2_Cs5YMSNPn7q8X_6rpcnetNtB9_9RpcClient7connect0s3_0Cs7wZUB9RO2iF_25exact_coverage_lines_test
FNDA:0,_RNCNCNvMs2_Cs5YMSNPn7q8X_6rpcnetNtB9_9RpcClient7connect0s4_0Cs7wZUB9RO2iF_25exact_coverage_lines_test
FNDA:0,_RNCNCNvMs2_Cs5YMSNPn7q8X_6rpcnetNtB9_9RpcClient7connect0s5_0Cs7wZUB9RO2iF_25exact_coverage_lines_test
FNDA:0,_RNCNCNvMs2_Cs5YMSNPn7q8X_6rpcnetNtB9_9RpcClient7connect0s6_0Cs7wZUB9RO2iF_25exact_coverage_lines_test
FNDA:0,_RNCNCNvMs2_Cs5YMSNPn7q8X_6rpcnetNtB9_9RpcClient7connect0s7_0Cs7wZUB9RO2iF_25exact_coverage_lines_test
FNDA:0,_RNCNCNvMs2_Cs5YMSNPn7q8X_6rpcnetNtB9_9RpcClient7connect0s8_0Cs7wZUB9RO2iF_25exact_coverage_lines_test
FNDA:0,_RNCNCNvMs2_Cs5YMSNPn7q8X_6rpcnetNtB9_9RpcClient7connect0s9_0Cs7wZUB9RO2iF_25exact_coverage_lines_test
FNDA:0,_RNCNCNvMs2_Cs5YMSNPn7q8X_6rpcnetNtB9_9RpcClient7connect0s_0Cs7wZUB9RO2iF_25exact_coverage_lines_test
FNDA:0,_RNCNCNvMs2_Cs5YMSNPn7q8X_6rpcnetNtB9_9RpcClient7connect0sa_0Cs7wZUB9RO2iF_25exact_coverage_lines_test
FNDA:0,_RNCNvMs1_Cs5YMSNPn7q8X_6rpcnetNtB7_9RpcServer20send_response_stream0Cs7wZUB9RO2iF_25exact_coverage_lines_test
FNDA:4,_RNCNvMs1_Cs5YMSNPn7q8X_6rpcnetNtB7_9RpcServer5start0Cs7wZUB9RO2iF_25exact_coverage_lines_test
FNDA:10,_RNCNvMs2_Cs5YMSNPn7q8X_6rpcnetNtB7_9RpcClient4call0Cs7wZUB9RO2iF_25exact_coverage_lines_test
FNDA:4,_RNCNvMs2_Cs5YMSNPn7q8X_6rpcnetNtB7_9RpcClient7connect0Cs7wZUB9RO2iF_25exact_coverage_lines_test
FNDA:0,_RINvMs0_Cs5YMSNPn7q8X_6rpcnetNtB6_9RpcConfig13with_key_pathpEB6_
FNDA:0,_RINvMs0_Cs5YMSNPn7q8X_6rpcnetNtB6_9RpcConfig16with_server_namepEB6_
FNDA:0,_RINvMs0_Cs5YMSNPn7q8X_6rpcnetNtB6_9RpcConfig3newppEB6_
FNDA:0,_RINvMs1_Cs5YMSNPn7q8X_6rpcnetNtB6_9RpcServer18register_streamingpppEB6_
FNDA:0,_RINvMs1_Cs5YMSNPn7q8X_6rpcnetNtB6_9RpcServer8registerppEB6_
FNDA:0,_RINvMs2_Cs5YMSNPn7q8X_6rpcnetNtB6_9RpcClient14call_streamingpEB6_
FNDA:0,_RINvMs2_Cs5YMSNPn7q8X_6rpcnetNtB6_9RpcClient21call_client_streamingpEB6_
FNDA:0,_RNCINvMs1_Cs5YMSNPn7q8X_6rpcnetNtB8_9RpcServer18register_streamingpppE0B8_
FNDA:0,_RNCINvMs1_Cs5YMSNPn7q8X_6rpcnetNtB8_9RpcServer8registerppE0B8_
FNDA:0,_RNCINvMs2_Cs5YMSNPn7q8X_6rpcnetNtB8_9RpcClient14call_streamingpE0B8_
FNDA:0,_RNCINvMs2_Cs5YMSNPn7q8X_6rpcnetNtB8_9RpcClient21call_client_streamingpE0B8_
FNDA:0,_RNCNCINvMs1_Cs5YMSNPn7q8X_6rpcnetNtBa_9RpcServer18register_streamingpppE00Ba_
FNDA:0,_RNCNCINvMs1_Cs5YMSNPn7q8X_6rpcnetNtBa_9RpcServer8registerppE00Ba_
FNDA:0,_RNCNCINvMs2_Cs5YMSNPn7q8X_6rpcnetNtBa_9RpcClient14call_streamingpE00Ba_
FNDA:0,_RNCNCINvMs2_Cs5YMSNPn7q8X_6rpcnetNtBa_9RpcClient14call_streamingpE0s0_0Ba_
FNDA:0,_RNCNCINvMs2_Cs5YMSNPn7q8X_6rpcnetNtBa_9RpcClient14call_streamingpE0s_0Ba_
FNDA:0,_RNCNCNCINvMs1_Cs5YMSNPn7q8X_6rpcnetNtBc_9RpcServer18register_streamingpppE000Bc_
FNDA:0,_RNCNCNCNvMs1_Cs5YMSNPn7q8X_6rpcnetNtBb_9RpcServer5start000Bb_
FNDA:0,_RNCNCNvMs1_Cs5YMSNPn7q8X_6rpcnetNtB9_9RpcServer5start00B9_
FNDA:0,_RNCNCNvMs2_Cs5YMSNPn7q8X_6rpcnetNtB9_9RpcClient4call00B9_
FNDA:0,_RNCNCNvMs2_Cs5YMSNPn7q8X_6rpcnetNtB9_9RpcClient4call0s0_0B9_
FNDA:0,_RNCNCNvMs2_Cs5YMSNPn7q8X_6rpcnetNtB9_9RpcClient4call0s_0B9_
FNDA:0,_RNCNCNvMs2_Cs5YMSNPn7q8X_6rpcnetNtB9_9RpcClient7connect00B9_
FNDA:0,_RNCNCNvMs2_Cs5YMSNPn7q8X_6rpcnetNtB9_9RpcClient7connect0s0_0B9_
FNDA:0,_RNCNCNvMs2_Cs5YMSNPn7q8X_6rpcnetNtB9_9RpcClient7connect0s1_0B9_
FNDA:0,_RNCNCNvMs2_Cs5YMSNPn7q8X_6rpcnetNtB9_9RpcClient7connect0s2_0B9_
FNDA:0,_RNCNCNvMs2_Cs5YMSNPn7q8X_6rpcnetNtB9_9RpcClient7connect0s3_0B9_
FNDA:0,_RNCNCNvMs2_Cs5YMSNPn7q8X_6rpcnetNtB9_9RpcClient7connect0s4_0B9_
FNDA:0,_RNCNCNvMs2_Cs5YMSNPn7q8X_6rpcnetNtB9_9RpcClient7connect0s5_0B9_
FNDA:0,_RNCNCNvMs2_Cs5YMSNPn7q8X_6rpcnetNtB9_9RpcClient7connect0s6_0B9_
FNDA:0,_RNCNCNvMs2_Cs5YMSNPn7q8X_6rpcnetNtB9_9RpcClient7connect0s7_0B9_
FNDA:0,_RNCNCNvMs2_Cs5YMSNPn7q8X_6rpcnetNtB9_9RpcClient7connect0s8_0B9_
FNDA:0,_RNCNCNvMs2_Cs5YMSNPn7q8X_6rpcnetNtB9_9RpcClient7connect0s9_0B9_
FNDA:0,_RNCNCNvMs2_Cs5YMSNPn7q8X_6rpcnetNtB9_9RpcClient7connect0s_0B9_
FNDA:0,_RNCNCNvMs2_Cs5YMSNPn7q8X_6rpcnetNtB9_9RpcClient7connect0sa_0B9_
FNDA:0,_RNCNvMs1_Cs5YMSNPn7q8X_6rpcnetNtB7_9RpcServer20send_response_stream0B7_
FNDA:0,_RNCNvMs1_Cs5YMSNPn7q8X_6rpcnetNtB7_9RpcServer5start0B7_
FNDA:0,_RNCNvMs2_Cs5YMSNPn7q8X_6rpcnetNtB7_9RpcClient21call_server_streaming0B7_
FNDA:0,_RNCNvMs2_Cs5YMSNPn7q8X_6rpcnetNtB7_9RpcClient4call0B7_
FNDA:0,_RNCNvMs2_Cs5YMSNPn7q8X_6rpcnetNtB7_9RpcClient7connect0B7_
FNDA:0,_RNvMs1_Cs5YMSNPn7q8X_6rpcnetNtB5_9RpcServer21create_request_stream
FNDA:0,_RNCNvMs1_Cs5YMSNPn7q8X_6rpcnetNtB7_9RpcServer4bind0B7_
FNDA:0,_RNCNvMs1_Cs5YMSNPn7q8X_6rpcnetNtB7_9RpcServer4binds0_0B7_
FNDA:0,_RNCNvMs1_Cs5YMSNPn7q8X_6rpcnetNtB7_9RpcServer4binds1_0B7_
FNDA:0,_RNCNvMs1_Cs5YMSNPn7q8X_6rpcnetNtB7_9RpcServer4binds2_0B7_
FNDA:0,_RNCNvMs1_Cs5YMSNPn7q8X_6rpcnetNtB7_9RpcServer4binds3_0B7_
FNDA:0,_RNCNvMs1_Cs5YMSNPn7q8X_6rpcnetNtB7_9RpcServer4binds4_0B7_
FNDA:0,_RNCNvMs1_Cs5YMSNPn7q8X_6rpcnetNtB7_9RpcServer4binds5_0B7_
FNDA:0,_RNCNvMs1_Cs5YMSNPn7q8X_6rpcnetNtB7_9RpcServer4binds6_0B7_
FNDA:0,_RNCNvMs1_Cs5YMSNPn7q8X_6rpcnetNtB7_9RpcServer4binds7_0B7_
FNDA:0,_RNCNvMs1_Cs5YMSNPn7q8X_6rpcnetNtB7_9RpcServer4binds8_0B7_
FNDA:0,_RNCNvMs1_Cs5YMSNPn7q8X_6rpcnetNtB7_9RpcServer4binds9_0B7_
FNDA:0,_RNCNvMs1_Cs5YMSNPn7q8X_6rpcnetNtB7_9RpcServer4binds_0B7_
FNDA:0,_RNCNvMs1_Cs5YMSNPn7q8X_6rpcnetNtB7_9RpcServer4bindsa_0B7_
FNDA:30,_RNvMCs5YMSNPn7q8X_6rpcnetNtB2_10RpcRequest2id
FNDA:30,_RNvMCs5YMSNPn7q8X_6rpcnetNtB2_10RpcRequest3new
FNDA:31,_RNvMCs5YMSNPn7q8X_6rpcnetNtB2_10RpcRequest6method
FNDA:29,_RNvMCs5YMSNPn7q8X_6rpcnetNtB2_10RpcRequest6params
FNDA:16,_RNvMs0_Cs5YMSNPn7q8X_6rpcnetNtB5_9RpcConfig24with_keep_alive_interval
FNDA:0,_RNvMs1_Cs5YMSNPn7q8X_6rpcnetNtB5_9RpcServer20send_response_stream
FNDA:0,_RNvMs1_Cs5YMSNPn7q8X_6rpcnetNtB5_9RpcServer39create_request_stream_with_initial_data
FNDA:8,_RNvMs1_Cs5YMSNPn7q8X_6rpcnetNtB5_9RpcServer3new
FNDA:8,_RNvMs1_Cs5YMSNPn7q8X_6rpcnetNtB5_9RpcServer4bind
FNDA:8,_RNvMs1_Cs5YMSNPn7q8X_6rpcnetNtB5_9RpcServer5start
FNDA:0,_RNvMs2_Cs5YMSNPn7q8X_6rpcnetNtB5_9RpcClient21call_server_streaming
FNDA:30,_RNvMs2_Cs5YMSNPn7q8X_6rpcnetNtB5_9RpcClient4call
FNDA:8,_RNvMs2_Cs5YMSNPn7q8X_6rpcnetNtB5_9RpcClient7connect
FNDA:29,_RNvMs_Cs5YMSNPn7q8X_6rpcnetNtB4_11RpcResponse11from_result
FNDA:30,_RNvMs_Cs5YMSNPn7q8X_6rpcnetNtB4_11RpcResponse2id
FNDA:30,_RNvMs_Cs5YMSNPn7q8X_6rpcnetNtB4_11RpcResponse3new
FNDA:30,_RNvMs_Cs5YMSNPn7q8X_6rpcnetNtB4_11RpcResponse5error
FNDA:30,_RNvMs_Cs5YMSNPn7q8X_6rpcnetNtB4_11RpcResponse6result
FNDA:8,_RINvMs0_Cs5YMSNPn7q8X_6rpcnetNtB6_9RpcConfig13with_key_pathReECs3L44XCKFR2I_23surgical_line_1426_test
FNDA:8,_RINvMs0_Cs5YMSNPn7q8X_6rpcnetNtB6_9RpcConfig16with_server_nameReECs3L44XCKFR2I_23surgical_line_1426_test
FNDA:8,_RINvMs0_Cs5YMSNPn7q8X_6rpcnetNtB6_9RpcConfig3newReBK_ECs3L44XCKFR2I_23surgical_line_1426_test
FNDA:1,_RINvMs1_Cs5YMSNPn7q8X_6rpcnetNtB6_9RpcServer8registerNCNCNvCs3L44XCKFR2I_23surgical_line_1426_tests_34test_line_1426_with_unknown_method00NCNCBR_00EBV_
FNDA:1,_RINvMs1_Cs5YMSNPn7q8X_6rpcnetNtB6_9RpcServer8registerNCNCNvCs3L44XCKFR2I_23surgical_line_1426_tests_36test_surgical_line_1426_bincode_path00NCNCBR_00EBV_
FNDA:1,_RINvMs1_Cs5YMSNPn7q8X_6rpcnetNtB6_9RpcServer8registerNCNCNvCs3L44XCKFR2I_23surgical_line_1426_tests_39test_concurrent_calls_hitting_line_142600NCNCBR_00EBV_
FNDA:1,_RINvMs1_Cs5YMSNPn7q8X_6rpcnetNtB6_9RpcServer8registerNCNCNvCs3L44XCKFR2I_23surgical_line_1426_tests_42test_line_1426_with_various_response_sizes00NCNCBR_00EBV_
FNDA:1,_RNCINvMs1_Cs5YMSNPn7q8X_6rpcnetNtB8_9RpcServer8registerNCNCNvCs3L44XCKFR2I_23surgical_line_1426_tests_34test_line_1426_with_unknown_method00NCNCBT_00E0BX_
FNDA:1,_RNCINvMs1_Cs5YMSNPn7q8X_6rpcnetNtB8_9RpcServer8registerNCNCNvCs3L44XCKFR2I_23surgical_line_1426_tests_36test_surgical_line_1426_bincode_path00NCNCBT_00E0BX_
FNDA:1,_RNCINvMs1_Cs5YMSNPn7q8X_6rpcnetNtB8_9RpcServer8registerNCNCNvCs3L44XCKFR2I_23surgical_line_1426_tests_39test_concurrent_calls_hitting_line_142600NCNCBT_00E0BX_
FNDA:1,_RNCINvMs1_Cs5YMSNPn7q8X_6rpcnetNtB8_9RpcServer8registerNCNCNvCs3L44XCKFR2I_23surgical_line_1426_tests_42test_line_1426_with_various_response_sizes00NCNCBT_00E0BX_
FNDA:1,_RNCNCINvMs1_Cs5YMSNPn7q8X_6rpcnetNtBa_9RpcServer8registerNCNCNvCs3L44XCKFR2I_23surgical_line_1426_tests_34test_line_1426_with_unknown_method00NCNCBV_00E00BZ_
FNDA:4,_RNCNCINvMs1_Cs5YMSNPn7q8X_6rpcnetNtBa_9RpcServer8registerNCNCNvCs3L44XCKFR2I_23surgical_line_1426_tests_36test_surgical_line_1426_bincode_path00NCNCBV_00E00BZ_
FNDA:10,_RNCNCINvMs1_Cs5YMSNPn7q8X_6rpcnetNtBa_9RpcServer8registerNCNCNvCs3L44XCKFR2I_23surgical_line_1426_tests_39test_concurrent_calls_hitting_line_142600NCNCBV_00E00BZ_
FNDA:4,_RNCNCINvMs1_Cs5YMSNPn7q8X_6rpcnetNtBa_9RpcServer8registerNCNCNvCs3L44XCKFR2I_23surgical_line_1426_tests_42test_line_1426_with_various_response_sizes00NCNCBV_00E00BZ_
FNDA:20,_RNCNCNCNvMs1_Cs5YMSNPn7q8X_6rpcnetNtBb_9RpcServer5start000Cs3L44XCKFR2I_23surgical_line_1426_test
FNDA:4,_RNCNCNvMs1_Cs5YMSNPn7q8X_6rpcnetNtB9_9RpcServer5start00Cs3L44XCKFR2I_23surgical_line_1426_test
FNDA:0,_RNCNCNvMs2_Cs5YMSNPn7q8X_6rpcnetNtB9_9RpcClient4call00Cs3L44XCKFR2I_23surgical_line_1426_test
FNDA:20,_RNCNCNvMs2_Cs5YMSNPn7q8X_6rpcnetNtB9_9RpcClient4call0s0_0Cs3L44XCKFR2I_23surgical_line_1426_test
FNDA:0,_RNCNCNvMs2_Cs5YMSNPn7q8X_6rpcnetNtB9_9RpcClient4call0s_0Cs3L44XCKFR2I_23surgical_line_1426_test
FNDA:0,_RNCNCNvMs2_Cs5YMSNPn7q8X_6rpcnetNtB9_9RpcClient7connect00Cs3L44XCKFR2I_23surgical_line_1426_test
FNDA:0,_RNCNCNvMs2_Cs5YMSNPn7q8X_6rpcnetNtB9_9RpcClient7connect0s0_0Cs3L44XCKFR2I_23surgical_line_1426_test
FNDA:0,_RNCNCNvMs2_Cs5YMSNPn7q8X_6rpcnetNtB9_9RpcClient7connect0s1_0Cs3L44XCKFR2I_23surgical_line_1426_test
FNDA:0,_RNCNCNvMs2_Cs5YMSNPn7q8X_6rpcnetNtB9_9RpcClient7connect0s2_0Cs3L44XCKFR2I_23surgical_line_1426_test
FNDA:0,_RNCNCNvMs2_Cs5YMSNPn7q8X_6rpcnetNtB9_9RpcClient7connect0s3_0Cs3L44XCKFR2I_23surgical_line_1426_test
FNDA:0,_RNCNCNvMs2_Cs5YMSNPn7q8X_6rpcnetNtB9_9RpcClient7connect0s4_0Cs3L44XCKFR2I_23surgical_line_1426_test
FNDA:0,_RNCNCNvMs2_Cs5YMSNPn7q8X_6rpcnetNtB9_9RpcClient7connect0s5_0Cs3L44XCKFR2I_23surgical_line_1426_test
FNDA:0,_RNCNCNvMs2_Cs5YMSNPn7q8X_6rpcnetNtB9_9RpcClient7connect0s6_0Cs3L44XCKFR2I_23surgical_line_1426_test
FNDA:0,_RNCNCNvMs2_Cs5YMSNPn7q8X_6rpcnetNtB9_9RpcClient7connect0s7_0Cs3L44XCKFR2I_23surgical_line_1426_test
FNDA:0,_RNCNCNvMs2_Cs5YMSNPn7q8X_6rpcnetNtB9_9RpcClient7connect0s8_0Cs3L44XCKFR2I_23surgical_line_1426_test
FNDA:0,_RNCNCNvMs2_Cs5YMSNPn7q8X_6rpcnetNtB9_9RpcClient7connect0s9_0Cs3L44XCKFR2I_23surgical_line_1426_test
FNDA:0,_RNCNCNvMs2_Cs5YMSNPn7q8X_6rpcnetNtB9_9RpcClient7connect0s_0Cs3L44XCKFR2I_23surgical_line_1426_test
FNDA:0,_RNCNCNvMs2_Cs5YMSNPn7q8X_6rpcnetNtB9_9RpcClient7connect0sa_0Cs3L44XCKFR2I_23surgical_line_1426_test
FNDA:0,_RNCNvMs1_Cs5YMSNPn7q8X_6rpcnetNtB7_9RpcServer20send_response_stream0Cs3L44XCKFR2I_23surgical_line_1426_test
FNDA:4,_RNCNvMs1_Cs5YMSNPn7q8X_6rpcnetNtB7_9RpcServer5start0Cs3L44XCKFR2I_23surgical_line_1426_test
FNDA:20,_RNCNvMs2_Cs5YMSNPn7q8X_6rpcnetNtB7_9RpcClient4call0Cs3L44XCKFR2I_23surgical_line_1426_test
FNDA:4,_RNCNvMs2_Cs5YMSNPn7q8X_6rpcnetNtB7_9RpcClient7connect0Cs3L44XCKFR2I_23surgical_line_1426_test
FNF:72
FNH:27
DA:808,30
DA:809,30
DA:810,30
DA:815,30
DA:816,30
DA:817,30
DA:822,31
DA:823,31
DA:824,31
DA:830,29
DA:831,29
DA:832,29
DA:868,30
DA:869,30
DA:870,30
DA:881,29
DA:882,29
DA:883,29
DA:884,0
DA:886,29
DA:889,30
DA:890,30
DA:891,30
DA:896,30
DA:897,30
DA:898,30
DA:903,30
DA:904,30
DA:905,30
DA:990,16
DA:991,16
DA:992,16
DA:993,16
DA:994,16
DA:995,16
DA:996,16
DA:997,16
DA:998,16
DA:1017,16
DA:1018,16
DA:1019,16
DA:1020,16
DA:1039,16
DA:1040,16
DA:1041,16
DA:1042,16
DA:1068,16
DA:1069,16
DA:1070,16
DA:1071,16
DA:1203,8
DA:1204,8
DA:1205,8
DA:1206,8
DA:1207,8
DA:1208,8
DA:1209,8
DA:1210,8
DA:1268,8
DA:1269,8
DA:1270,8
DA:1271,8
DA:1272,8
DA:1273,8
DA:1274,8
DA:1275,8
DA:1276,29
DA:1277,29
DA:1278,29
DA:1279,8
DA:1280,8
DA:1331,0
DA:1332,0
DA:1333,0
DA:1334,0
DA:1335,0
DA:1336,0
DA:1337,0
DA:1338,0
DA:1339,0
DA:1340,0
DA:1341,0
DA:1342,0
DA:1343,0
DA:1344,0
DA:1345,0
DA:1346,0
DA:1347,0
DA:1348,0
DA:1393,8
DA:1395,16
DA:1396,8
DA:1397,8
DA:1398,8
DA:1399,8
DA:1401,38
DA:1402,30
DA:1403,30
DA:1404,30
DA:1405,30
DA:1406,30
DA:1408,30
DA:1409,30
DA:1412,30
DA:1413,30
DA:1414,30
DA:1415,29
DA:1416,29
DA:1417,29
DA:1419,1
DA:1420,1
DA:1421,1
DA:1422,1
DA:1423,1
DA:1425,30
DA:1426,30
DA:1427,0
DA:1428,30
DA:1429,0
DA:1430,0
DA:1431,0
DA:1432,0
DA:1433,0
DA:1434,0
DA:1435,0
DA:1436,0
DA:1437,0
DA:1438,0
DA:1439,0
DA:1441,0
DA:1442,0
DA:1444,0
DA:1445,0
DA:1446,0
DA:1447,0
DA:1448,0
DA:1449,0
DA:1451,0
DA:1452,0
DA:1453,0
DA:1454,0
DA:1455,0
DA:1456,0
DA:1457,0
DA:1458,0
DA:1459,0
DA:1460,0
DA:1462,30
DA:1464,8
DA:1467,0
DA:1468,0
DA:1471,0
DA:1472,0
DA:1473,0
DA:1474,0
DA:1475,0
DA:1476,0
DA:1477,0
DA:1478,0
DA:1479,0
DA:1480,0
DA:1481,0
DA:1482,0
DA:1483,0
DA:1484,0
DA:1485,0
DA:1486,0
DA:1487,0
DA:1488,0
DA:1489,0
DA:1490,0
DA:1491,0
DA:1492,0
DA:1493,0
DA:1494,0
DA:1495,0
DA:1496,0
DA:1497,0
DA:1498,0
DA:1499,0
DA:1500,0
DA:1501,0
DA:1502,0
DA:1503,0
DA:1504,0
DA:1505,0
DA:1506,0
DA:1507,0
DA:1508,0
DA:1509,0
DA:1510,0
DA:1511,0
DA:1512,0
DA:1513,0
DA:1514,0
DA:1515,0
DA:1516,0
DA:1519,0
DA:1520,0
DA:1521,0
DA:1522,0
DA:1523,0
DA:1524,0
DA:1525,0
DA:1526,0
DA:1527,0
DA:1528,0
DA:1529,0
DA:1530,0
DA:1531,0
DA:1532,0
DA:1533,0
DA:1534,0
DA:1535,0
DA:1536,0
DA:1537,0
DA:1538,0
DA:1539,0
DA:1540,0
DA:1541,0
DA:1542,0
DA:1543,0
DA:1544,0
DA:1545,0
DA:1546,0
DA:1547,0
DA:1548,0
DA:1549,0
DA:1550,0
DA:1551,0
DA:1552,0
DA:1553,0
DA:1554,0
DA:1555,0
DA:1556,0
DA:1557,0
DA:1558,0
DA:1561,0
DA:1562,0
DA:1563,0
DA:1564,0
DA:1565,0
DA:1566,0
DA:1567,0
DA:1568,0
DA:1569,0
DA:1570,0
DA:1571,0
DA:1572,0
DA:1576,0
DA:1577,0
DA:1578,0
DA:1579,0
DA:1580,0
DA:1581,0
DA:1587,0
DA:1588,0
DA:1589,0
DA:1640,8
DA:1641,8
DA:1642,8
DA:1643,0
DA:1644,8
DA:1647,8
DA:1648,8
DA:1649,8
DA:1650,8
DA:1651,8
DA:1652,8
DA:1654,8
DA:1655,8
DA:1656,8
DA:1657,8
DA:1659,8
DA:1660,8
DA:1661,8
DA:1662,8
DA:1664,8
DA:1665,8
DA:1667,8
DA:1668,8
DA:1669,8
DA:1670,8
DA:1671,8
DA:1672,8
DA:1673,8
DA:1674,8
DA:1675,8
DA:1677,8
DA:1678,0
DA:1679,8
DA:1681,8
DA:1682,8
DA:1683,8
DA:1684,8
DA:1822,8
DA:1824,8
DA:1825,8
DA:1826,8
DA:1827,8
DA:1828,8
DA:1829,8
DA:1830,8
DA:1831,8
DA:1832,8
DA:1833,8
DA:1834,8
DA:1835,8
DA:1836,8
DA:1837,8
DA:1838,8
DA:1840,8
DA:1841,8
DA:1842,8
DA:1843,8
DA:1844,8
DA:1845,8
DA:1846,8
DA:1847,8
DA:1848,8
DA:1850,8
DA:1851,8
DA:1852,8
DA:1853,8
DA:1854,8
DA:1856,8
DA:1857,8
DA:1858,8
DA:1859,8
DA:1860,0
DA:1862,8
DA:1863,8
DA:1864,8
DA:1865,8
DA:1866,8
DA:1979,30
DA:1980,30
DA:1981,30
DA:1982,30
DA:1984,30
DA:1987,30
DA:1988,30
DA:1989,30
DA:1990,30
DA:1991,30
DA:1995,30
DA:1996,30
DA:1997,30
DA:1998,30
DA:2001,30
DA:2002,30
DA:2003,30
DA:2004,32
DA:2005,32
DA:2006,32
DA:2007,32
DA:2008,32
DA:2009,32
DA:2010,30
DA:2012,30
DA:2013,29
DA:2014,1
DA:2015,0
DA:2017,0
DA:2018,2
DA:2019,0
DA:2022,0
DA:2023,0
DA:2024,0
DA:2025,30
DA:2028,30
DA:2029,30
DA:2030,0
DA:2032,30
DA:2094,0
DA:2095,0
DA:2096,0
DA:2097,0
DA:2098,0
DA:2099,0
DA:2100,0
DA:2101,0
DA:2103,0
DA:2104,0
DA:2105,0
DA:2106,0
DA:2107,0
DA:2111,0
DA:2112,0
DA:2113,0
DA:2114,0
DA:2115,0
DA:2116,0
DA:2121,0
DA:2122,0
DA:2123,0
DA:2124,0
DA:2125,0
DA:2126,0
DA:2127,0
DA:2128,0
DA:2129,0
DA:2130,0
DA:2131,0
DA:2132,0
DA:2133,0
DA:2134,0
DA:2135,0
DA:2138,0
DA:2139,0
DA:2140,0
DA:2141,0
DA:2142,0
DA:2143,0
DA:2144,0
DA:2145,0
DA:2146,0
DA:2147,0
DA:2148,0
DA:2149,0
DA:2150,0
DA:2151,0
DA:2152,0
DA:2153,0
DA:2154,0
DA:2155,0
DA:2156,0
DA:2157,0
DA:2158,0
DA:2159,0
DA:2160,0
DA:2161,0
DA:2162,0
DA:2163,0
DA:2164,0
DA:2165,0
DA:2166,0
DA:2167,0
DA:2168,0
DA:2169,0
DA:2170,0
DA:2171,0
DA:2172,0
DA:2173,0
DA:2174,0
DA:2175,0
DA:2176,0
DA:2177,0
DA:2178,0
DA:2179,0
DA:2180,0
DA:2181,0
DA:2223,0
DA:2224,0
DA:2225,0
DA:2226,0
DA:2227,0
DA:2231,0
DA:2232,0
DA:2233,0
DA:2234,0
DA:2235,0
DA:2278,0
DA:2279,0
DA:2280,0
DA:2281,0
DA:2282,0
DA:2283,0
DA:2284,0
DA:2285,0
DA:2287,0
DA:2288,0
DA:2289,0
DA:2290,0
DA:2291,0
DA:2292,0
DA:2293,0
DA:2295,0
BRF:0
BRH:0
LF:532
LH:217
end_of_record
